; Function Attrs: mustprogress nofree norecurse nosync nounwind willreturn memory(argmem: read) uwtable
define internal fastcc noundef range(i32 -32768, 2147483647) i32 @_ZN12_GLOBAL__N_111cornerScoreILi12EEEiPKhPKii(ptr noundef readonly captures(none) %0, ptr noundef nonnull readonly captures(none) %1, i32 noundef %2) unnamed_addr #4 {
  %4 = alloca [23 x i16], align 16
  %5 = load i8, ptr %0, align 1, !tbaa !21
  %6 = zext i8 %5 to i16
  call void @llvm.lifetime.start.p0(i64 46, ptr nonnull %4) #11
  br label %7

7:                                                ; preds = %3, %7
  %indvars.iv = phi i64 [ 0, %3 ], [ %indvars.iv.next, %7 ]
  %8 = getelementptr inbounds nuw i32, ptr %1, i64 %indvars.iv
  %9 = load i32, ptr %8, align 4, !tbaa !17
  %10 = sext i32 %9 to i64
  %11 = getelementptr inbounds i8, ptr %0, i64 %10
  %12 = load i8, ptr %11, align 1, !tbaa !21
  %13 = zext i8 %12 to i16
  %14 = sub nsw i16 %6, %13
  %15 = getelementptr inbounds nuw [23 x i16], ptr %4, i64 0, i64 %indvars.iv
  store i16 %14, ptr %15, align 2, !tbaa !66
  %indvars.iv.next = add nuw nsw i64 %indvars.iv, 1
  %exitcond.not = icmp eq i64 %indvars.iv.next, 19
  br i1 %exitcond.not, label %.preheader, label %7, !llvm.loop !71

.preheader:                                       ; preds = %7, %47
  %indvars.iv161 = phi i64 [ %indvars.iv.next162, %47 ], [ 0, %7 ]
  %.0147156 = phi i32 [ %.1148, %47 ], [ %2, %7 ]
  %16 = or disjoint i64 %indvars.iv161, 1
  %17 = getelementptr inbounds nuw [23 x i16], ptr %4, i64 0, i64 %16
  %18 = load i16, ptr %17, align 2, !tbaa !66
  %indvars.iv.next162 = add nuw nsw i64 %indvars.iv161, 2
  %19 = getelementptr inbounds nuw [23 x i16], ptr %4, i64 0, i64 %indvars.iv.next162
  %20 = load i16, ptr %19, align 4, !tbaa !66
  %21 = tail call i16 @llvm.smin.i16(i16 %20, i16 %18)
  %.sroa.speculated120 = sext i16 %21 to i32
  %.not29 = icmp slt i32 %.0147156, %.sroa.speculated120
  br i1 %.not29, label %22, label %47

22:                                               ; preds = %.preheader
  %23 = add nuw nsw i64 %indvars.iv161, 3
  %24 = getelementptr inbounds nuw [23 x i16], ptr %4, i64 0, i64 %23
  %25 = load i16, ptr %24, align 2, !tbaa !66
  %26 = tail call i16 @llvm.smin.i16(i16 %25, i16 %21)
  %27 = add nuw nsw i64 %indvars.iv161, 4
  %28 = getelementptr inbounds nuw [23 x i16], ptr %4, i64 0, i64 %27
  %29 = load i16, ptr %28, align 4, !tbaa !66
  %30 = tail call i16 @llvm.smin.i16(i16 %29, i16 %26)
  %31 = add nuw nsw i64 %indvars.iv161, 5
  %32 = getelementptr inbounds nuw [23 x i16], ptr %4, i64 0, i64 %31
  %33 = load i16, ptr %32, align 2, !tbaa !66
  %34 = tail call i16 @llvm.smin.i16(i16 %33, i16 %30)
  %35 = add nuw nsw i64 %indvars.iv161, 6
  %36 = getelementptr inbounds nuw [23 x i16], ptr %4, i64 0, i64 %35
  %37 = load i16, ptr %36, align 4, !tbaa !66
  %38 = tail call i16 @llvm.smin.i16(i16 %37, i16 %34)
  %39 = getelementptr inbounds nuw [23 x i16], ptr %4, i64 0, i64 %indvars.iv161
  %40 = load i16, ptr %39, align 4, !tbaa !66
  %41 = tail call i16 @llvm.smin.i16(i16 %40, i16 %38)
  %42 = sext i16 %41 to i32
  %.sroa.speculated140 = tail call i32 @llvm.smax.i32(i32 %.0147156, i32 %42)
  %43 = add nuw nsw i64 %indvars.iv161, 7
  %44 = getelementptr inbounds nuw [23 x i16], ptr %4, i64 0, i64 %43
  %45 = load i16, ptr %44, align 2, !tbaa !66
  %.v = tail call i16 @llvm.smin.i16(i16 %45, i16 %38)
  %46 = sext i16 %.v to i32
  %.sroa.speculated137 = tail call i32 @llvm.smax.i32(i32 %.sroa.speculated140, i32 %46)
  br label %47

47:                                               ; preds = %.preheader, %22
  %.1148 = phi i32 [ %.sroa.speculated137, %22 ], [ %.0147156, %.preheader ]
  %48 = icmp samesign ult i64 %indvars.iv161, 10
  br i1 %48, label %.preheader, label %49, !llvm.loop !72

49:                                               ; preds = %47
  %50 = sub nsw i32 0, %.1148
  %.phi.trans.insert = getelementptr inbounds nuw i8, ptr %4, i64 4
  %.pre = load i16, ptr %.phi.trans.insert, align 4, !tbaa !66
  br label %51

51:                                               ; preds = %49, %82
  %52 = phi i16 [ %.pre, %49 ], [ %63, %82 ]
  %indvars.iv164 = phi i64 [ 0, %49 ], [ %indvars.iv.next165, %82 ]
  %.0149158 = phi i32 [ %50, %49 ], [ %.1150, %82 ]
  %53 = or disjoint i64 %indvars.iv164, 1
  %54 = getelementptr inbounds nuw [23 x i16], ptr %4, i64 0, i64 %53
  %55 = load i16, ptr %54, align 2, !tbaa !66
  %indvars.iv.next165 = add nuw nsw i64 %indvars.iv164, 2
  %56 = tail call i16 @llvm.smax.i16(i16 %55, i16 %52)
  %57 = add nuw nsw i64 %indvars.iv164, 3
  %58 = getelementptr inbounds nuw [23 x i16], ptr %4, i64 0, i64 %57
  %59 = load i16, ptr %58, align 2, !tbaa !66
  %60 = tail call i16 @llvm.smax.i16(i16 %56, i16 %59)
  %61 = add nuw nsw i64 %indvars.iv164, 4
  %62 = getelementptr inbounds nuw [23 x i16], ptr %4, i64 0, i64 %61
  %63 = load i16, ptr %62, align 4, !tbaa !66
  %64 = tail call i16 @llvm.smax.i16(i16 %60, i16 %63)
  %.sroa.speculated57 = sext i16 %64 to i32
  %.not = icmp sgt i32 %.0149158, %.sroa.speculated57
  br i1 %.not, label %65, label %82

65:                                               ; preds = %51
  %66 = add nuw nsw i64 %indvars.iv164, 5
  %67 = getelementptr inbounds nuw [23 x i16], ptr %4, i64 0, i64 %66
  %68 = load i16, ptr %67, align 2, !tbaa !66
  %69 = tail call i16 @llvm.smax.i16(i16 %64, i16 %68)
  %70 = add nuw nsw i64 %indvars.iv164, 6
  %71 = getelementptr inbounds nuw [23 x i16], ptr %4, i64 0, i64 %70
  %72 = load i16, ptr %71, align 4, !tbaa !66
  %73 = tail call i16 @llvm.smax.i16(i16 %69, i16 %72)
  %74 = getelementptr inbounds nuw [23 x i16], ptr %4, i64 0, i64 %indvars.iv164
  %75 = load i16, ptr %74, align 4, !tbaa !66
  %76 = tail call i16 @llvm.smax.i16(i16 %73, i16 %75)
  %77 = sext i16 %76 to i32
  %.sroa.speculated85 = tail call i32 @llvm.smin.i32(i32 %77, i32 %.0149158)
  %78 = add nuw nsw i64 %indvars.iv164, 7
  %79 = getelementptr inbounds nuw [23 x i16], ptr %4, i64 0, i64 %78
  %80 = load i16, ptr %79, align 2, !tbaa !66
  %.v168 = tail call i16 @llvm.smax.i16(i16 %73, i16 %80)
  %81 = sext i16 %.v168 to i32
  %.sroa.speculated82 = tail call i32 @llvm.smin.i32(i32 %81, i32 %.sroa.speculated85)
  br label %82

82:                                               ; preds = %51, %65
  %.1150 = phi i32 [ %.sroa.speculated82, %65 ], [ %.0149158, %51 ]
  %83 = icmp samesign ult i64 %indvars.iv164, 10
  br i1 %83, label %51, label %84, !llvm.loop !73

84:                                               ; preds = %82
  %85 = xor i32 %.1150, -1
  call void @llvm.lifetime.end.p0(i64 46, ptr nonnull %4) #11
  ret i32 %85
}